target datalayout = "e-m:e-p270:32:32-p271:32:32-p272:64:64-i64:64-i128:128-f80:128-n8:16:32:64-S128"
target triple = "x86_64-pc-linux-gnu"

%struct.RBasic = type { i64, i64 }
%struct.RArray = type { %struct.RBasic, %union.anon.2 }
%union.anon.2 = type { %struct.anon.3 }
%struct.anon.3 = type { i64, %union.anon.4, ptr }
%union.anon.4 = type { i64 }

@sivVALUE = internal global i64 0, align 8
@sivINDEFINITE_LENGTH = internal global i64 0, align 8
@eASN1Error = global i64 0, align 8
@cASN1EndOfContent = internal global i64 0, align 8
@.str.121 = private unnamed_addr constant [6 x i8] c"Array\00", align 1
@.str.122 = private unnamed_addr constant [5 x i8] c"to_a\00", align 1
@.str.123 = private unnamed_addr constant [28 x i8] c"illegal EOC octets in value\00", align 1

; Function Attrs: inlinehint nounwind sspstrong willreturn memory(read) uwtable
define internal i64 @RB_FL_TEST_RAW(i64 noundef %0, i64 noundef %1) #10 {
  %3 = alloca i64, align 8
  %4 = alloca i64, align 8
  store i64 %0, ptr %3, align 8, !tbaa !20
  store i64 %1, ptr %4, align 8, !tbaa !20
  %5 = load i64, ptr %3, align 8, !tbaa !20
  %6 = inttoptr i64 %5 to ptr
  %7 = getelementptr inbounds nuw %struct.RBasic, ptr %6, i32 0, i32 0
  %8 = load i64, ptr %7, align 8, !tbaa !56
  %9 = load i64, ptr %4, align 8, !tbaa !20
  %10 = and i64 %8, %9
  ret i64 %10
}

; Function Attrs: inlinehint nounwind sspstrong willreturn memory(read) uwtable
define internal i64 @RARRAY_EMBED_LEN(i64 noundef %0) #10 {
  %2 = alloca i64, align 8
  %3 = alloca i64, align 8
  store i64 %0, ptr %2, align 8, !tbaa !20
  call void @llvm.lifetime.start.p0(i64 8, ptr %3) #16
  %4 = load i64, ptr %2, align 8, !tbaa !20
  %5 = inttoptr i64 %4 to ptr
  %6 = getelementptr inbounds nuw %struct.RBasic, ptr %5, i32 0, i32 0
  %7 = load i64, ptr %6, align 8, !tbaa !56
  store i64 %7, ptr %3, align 8, !tbaa !20
  %8 = load i64, ptr %3, align 8, !tbaa !20
  %9 = and i64 %8, 4161536
  store i64 %9, ptr %3, align 8, !tbaa !20
  %10 = load i64, ptr %3, align 8, !tbaa !20
  %11 = lshr i64 %10, 15
  store i64 %11, ptr %3, align 8, !tbaa !20
  %12 = load i64, ptr %3, align 8, !tbaa !20
  call void @llvm.lifetime.end.p0(i64 8, ptr %3) #16
  ret i64 %12
}

; Function Attrs: inlinehint nounwind sspstrong willreturn memory(read) uwtable
define internal zeroext i1 @RB_FL_ANY_RAW(i64 noundef %0, i64 noundef %1) #10 {
  %3 = alloca i64, align 8
  %4 = alloca i64, align 8
  store i64 %0, ptr %3, align 8, !tbaa !20
  store i64 %1, ptr %4, align 8, !tbaa !20
  %5 = load i64, ptr %3, align 8, !tbaa !20
  %6 = load i64, ptr %4, align 8, !tbaa !20
  %7 = call i64 @RB_FL_TEST_RAW(i64 noundef %5, i64 noundef %6) #20
  %8 = icmp ne i64 %7, 0
  ret i1 %8
}

; Function Attrs: inlinehint nounwind sspstrong willreturn memory(read) uwtable
define internal ptr @rb_array_const_ptr(i64 noundef %0) #10 {
  %2 = alloca ptr, align 8
  %3 = alloca i64, align 8
  store i64 %0, ptr %3, align 8, !tbaa !20
  %4 = load i64, ptr %3, align 8, !tbaa !20
  %5 = call zeroext i1 @RB_FL_ANY_RAW(i64 noundef %4, i64 noundef 8192) #20
  br i1 %5, label %6, label %11

6:                                                ; preds = %1
  %7 = load i64, ptr %3, align 8, !tbaa !20
  %8 = inttoptr i64 %7 to ptr
  %9 = getelementptr inbounds nuw %struct.RArray, ptr %8, i32 0, i32 1
  %10 = getelementptr inbounds [1 x i64], ptr %9, i64 0, i64 0
  store ptr %10, ptr %2, align 8
  br label %17

11:                                               ; preds = %1
  %12 = load i64, ptr %3, align 8, !tbaa !20
  %13 = inttoptr i64 %12 to ptr
  %14 = getelementptr inbounds nuw %struct.RArray, ptr %13, i32 0, i32 1
  %15 = getelementptr inbounds nuw %struct.anon.3, ptr %14, i32 0, i32 2
  %16 = load ptr, ptr %15, align 8, !tbaa !39
  store ptr %16, ptr %2, align 8
  br label %17

17:                                               ; preds = %11, %6
  %18 = load ptr, ptr %2, align 8
  ret ptr %18
}

; Function Attrs: inlinehint nounwind sspstrong willreturn memory(read) uwtable
define internal i64 @rb_array_len(i64 noundef %0) #10 {
  %2 = alloca i64, align 8
  %3 = alloca i64, align 8
  store i64 %0, ptr %3, align 8, !tbaa !20
  %4 = load i64, ptr %3, align 8, !tbaa !20
  %5 = call zeroext i1 @RB_FL_ANY_RAW(i64 noundef %4, i64 noundef 8192) #20
  br i1 %5, label %6, label %9

6:                                                ; preds = %1
  %7 = load i64, ptr %3, align 8, !tbaa !20
  %8 = call i64 @RARRAY_EMBED_LEN(i64 noundef %7) #20
  store i64 %8, ptr %2, align 8
  br label %15

9:                                                ; preds = %1
  %10 = load i64, ptr %3, align 8, !tbaa !20
  %11 = inttoptr i64 %10 to ptr
  %12 = getelementptr inbounds nuw %struct.RArray, ptr %11, i32 0, i32 1
  %13 = getelementptr inbounds nuw %struct.anon.3, ptr %12, i32 0, i32 0
  %14 = load i64, ptr %13, align 8, !tbaa !39
  store i64 %14, ptr %2, align 8
  br label %15

15:                                               ; preds = %9, %6
  %16 = load i64, ptr %2, align 8
  ret i64 %16
}

; Function Attrs: inlinehint nounwind sspstrong willreturn memory(none) uwtable
define internal zeroext i1 @RB_TEST(i64 noundef %0) #8 {
  %2 = alloca i64, align 8
  store i64 %0, ptr %2, align 8, !tbaa !20
  %3 = load i64, ptr %2, align 8, !tbaa !20
  %4 = and i64 %3, -5
  %5 = icmp ne i64 %4, 0
  ret i1 %5
}

; Function Attrs: nounwind sspstrong uwtable
define internal i64 @ossl_asn1cons_to_der(i64 noundef %0) #0 {
  %2 = alloca i64, align 8
  %3 = alloca i64, align 8
  %4 = alloca i64, align 8
  %5 = alloca i64, align 8
  %6 = alloca i32, align 4
  %7 = alloca i64, align 8
  %8 = alloca i32, align 4
  store i64 %0, ptr %2, align 8, !tbaa !20
  call void @llvm.lifetime.start.p0(i64 8, ptr %3) #16
  call void @llvm.lifetime.start.p0(i64 8, ptr %4) #16
  call void @llvm.lifetime.start.p0(i64 8, ptr %5) #16
  call void @llvm.lifetime.start.p0(i64 4, ptr %6) #16
  %9 = load i64, ptr %2, align 8, !tbaa !20
  %10 = load i64, ptr @sivINDEFINITE_LENGTH, align 8, !tbaa !20
  %11 = call i64 @rb_attr_get(i64 noundef %9, i64 noundef %10)
  %12 = call zeroext i1 @RB_TEST(i64 noundef %11) #19
  %13 = zext i1 %12 to i32
  store i32 %13, ptr %6, align 4, !tbaa !17
  %14 = load i64, ptr %2, align 8, !tbaa !20
  %15 = load i64, ptr @sivVALUE, align 8, !tbaa !20
  %16 = call i64 @rb_attr_get(i64 noundef %14, i64 noundef %15)
  %17 = call i64 @rb_convert_type(i64 noundef %16, i32 noundef 7, ptr noundef @.str.121, ptr noundef @.str.122)
  store i64 %17, ptr %3, align 8, !tbaa !20
  %18 = call i64 @rb_str_new_static(ptr noundef null, i64 noundef 0)
  store i64 %18, ptr %4, align 8, !tbaa !20
  store i64 0, ptr %5, align 8, !tbaa !20
  br label %19

19:                                               ; preds = %56, %1
  %20 = load i64, ptr %5, align 8, !tbaa !20
  %21 = load i64, ptr %3, align 8, !tbaa !20
  %22 = call i64 @rb_array_len(i64 noundef %21) #20
  %23 = icmp slt i64 %20, %22
  br i1 %23, label %24, label %59

24:                                               ; preds = %19
  call void @llvm.lifetime.start.p0(i64 8, ptr %7) #16
  %25 = load i64, ptr %3, align 8, !tbaa !20
  %26 = call ptr @rb_array_const_ptr(i64 noundef %25) #20
  %27 = load i64, ptr %5, align 8, !tbaa !20
  %28 = getelementptr inbounds i64, ptr %26, i64 %27
  %29 = load i64, ptr %28, align 8, !tbaa !20
  store i64 %29, ptr %7, align 8, !tbaa !20
  %30 = load i32, ptr %6, align 4, !tbaa !17
  %31 = icmp ne i32 %30, 0
  br i1 %31, label %32, label %46

32:                                               ; preds = %24
  %33 = load i64, ptr %7, align 8, !tbaa !20
  %34 = load i64, ptr @cASN1EndOfContent, align 8, !tbaa !20
  %35 = call i64 @rb_obj_is_kind_of(i64 noundef %33, i64 noundef %34)
  %36 = icmp ne i64 %35, 0
  br i1 %36, label %37, label %46

37:                                               ; preds = %32
  %38 = load i64, ptr %5, align 8, !tbaa !20
  %39 = load i64, ptr %3, align 8, !tbaa !20
  %40 = call i64 @rb_array_len(i64 noundef %39) #20
  %41 = sub nsw i64 %40, 1
  %42 = icmp ne i64 %38, %41
  br i1 %42, label %43, label %45

43:                                               ; preds = %37
  %44 = load i64, ptr @eASN1Error, align 8, !tbaa !20
  call void (i64, ptr, ...) @ossl_raise(i64 noundef %44, ptr noundef @.str.123) #17
  unreachable

45:                                               ; preds = %37
  store i32 2, ptr %8, align 4
  br label %53

46:                                               ; preds = %32, %24
  %47 = load i64, ptr %7, align 8, !tbaa !20
  %48 = call i64 @ossl_to_der_if_possible(i64 noundef %47)
  store i64 %48, ptr %7, align 8, !tbaa !20
  %49 = call i64 @rb_string_value(ptr noundef %7)
  %50 = load i64, ptr %4, align 8, !tbaa !20
  %51 = load i64, ptr %7, align 8, !tbaa !20
  %52 = call i64 @rb_str_append(i64 noundef %50, i64 noundef %51)
  store i32 0, ptr %8, align 4
  br label %53

53:                                               ; preds = %46, %45
  call void @llvm.lifetime.end.p0(i64 8, ptr %7) #16
  %54 = load i32, ptr %8, align 4
  switch i32 %54, label %64 [
    i32 0, label %55
    i32 2, label %59
  ]

55:                                               ; preds = %53
  br label %56

56:                                               ; preds = %55
  %57 = load i64, ptr %5, align 8, !tbaa !20
  %58 = add nsw i64 %57, 1
  store i64 %58, ptr %5, align 8, !tbaa !20
  br label %19, !llvm.loop !47

59:                                               ; preds = %53, %19
  %60 = load i64, ptr %2, align 8, !tbaa !20
  %61 = load i32, ptr %6, align 4, !tbaa !17
  %62 = load i64, ptr %4, align 8, !tbaa !20
  %63 = call i64 @to_der_internal(i64 noundef %60, i32 noundef 1, i32 noundef %61, i64 noundef %62)
  store i32 1, ptr %8, align 4
  call void @llvm.lifetime.end.p0(i64 4, ptr %6) #16
  call void @llvm.lifetime.end.p0(i64 8, ptr %5) #16
  call void @llvm.lifetime.end.p0(i64 8, ptr %4) #16
  call void @llvm.lifetime.end.p0(i64 8, ptr %3) #16
  ret i64 %63

64:                                               ; preds = %53
  unreachable
}