; Function Attrs: nounwind sspstrong uwtable
define internal i64 @ossl_asn1cons_to_der(i64 noundef %0) #0 {
  %2 = alloca i64, align 8
  %3 = load i64, ptr @sivINDEFINITE_LENGTH, align 8, !tbaa !17
  %4 = tail call i64 @rb_attr_get(i64 noundef %0, i64 noundef %3) #9
  %.fr = freeze i64 %4
  %5 = and i64 %.fr, -5
  %6 = icmp ne i64 %5, 0
  %7 = load i64, ptr @sivVALUE, align 8, !tbaa !17
  %8 = tail call i64 @rb_attr_get(i64 noundef %0, i64 noundef %7) #9
  %9 = tail call i64 @rb_convert_type(i64 noundef %8, i32 noundef 7, ptr noundef nonnull @.str.121, ptr noundef nonnull @.str.122) #9
  %10 = tail call i64 @rb_str_new_static(ptr noundef null, i64 noundef 0) #9
  %11 = inttoptr i64 %9 to ptr
  %12 = getelementptr inbounds nuw i8, ptr %11, i64 16
  %13 = getelementptr inbounds nuw i8, ptr %11, i64 32
  br i1 %6, label %.split.us, label %.split

.split.us:                                        ; preds = %1, %27
  %.015.us = phi i64 [ %33, %27 ], [ 0, %1 ]
  %14 = load i64, ptr %11, align 8, !tbaa !32
  %15 = and i64 %14, 8192
  %.not.i.us = icmp eq i64 %15, 0
  br i1 %.not.i.us, label %rb_array_len.exit.us, label %rb_array_len.exit.us.thread

rb_array_len.exit.us:                             ; preds = %.split.us
  %16 = load i64, ptr %12, align 8, !tbaa !30
  %17 = icmp slt i64 %.015.us, %16
  br i1 %17, label %21, label %.loopexit

rb_array_len.exit.us.thread:                      ; preds = %.split.us
  %18 = lshr i64 %14, 15
  %19 = and i64 %18, 127
  %20 = icmp samesign ult i64 %.015.us, %19
  br i1 %20, label %.thread, label %.loopexit

.thread:                                          ; preds = %rb_array_len.exit.us.thread
  call void @llvm.lifetime.start.p0(i64 8, ptr nonnull %2) #9
  br label %rb_array_const_ptr.exit.us

21:                                               ; preds = %rb_array_len.exit.us
  call void @llvm.lifetime.start.p0(i64 8, ptr nonnull %2) #9
  %22 = load ptr, ptr %13, align 8, !tbaa !30
  br label %rb_array_const_ptr.exit.us

rb_array_const_ptr.exit.us:                       ; preds = %.thread, %21
  %.0.i18.us = phi ptr [ %22, %21 ], [ %12, %.thread ]
  %23 = getelementptr inbounds nuw i64, ptr %.0.i18.us, i64 %.015.us
  %24 = load i64, ptr %23, align 8, !tbaa !17
  store i64 %24, ptr %2, align 8, !tbaa !17
  %25 = load i64, ptr @cASN1EndOfContent, align 8, !tbaa !17
  %26 = call i64 @rb_obj_is_kind_of(i64 noundef %24, i64 noundef %25) #9
  %.not.us = icmp eq i64 %26, 0
  br i1 %.not.us, label %27, label %.split27.us

27:                                               ; preds = %rb_array_const_ptr.exit.us
  %28 = load i64, ptr %2, align 8, !tbaa !17
  %29 = call i64 @ossl_to_der_if_possible(i64 noundef %28) #9
  store i64 %29, ptr %2, align 8, !tbaa !17
  %30 = call i64 @rb_string_value(ptr noundef nonnull %2) #9
  %31 = load i64, ptr %2, align 8, !tbaa !17
  %32 = call i64 @rb_str_append(i64 noundef %10, i64 noundef %31) #9
  call void @llvm.lifetime.end.p0(i64 8, ptr nonnull %2) #9
  %33 = add nuw nsw i64 %.015.us, 1
  br label %.split.us, !llvm.loop !73

.split:                                           ; preds = %1, %rb_array_const_ptr.exit
  %.015 = phi i64 [ %49, %rb_array_const_ptr.exit ], [ 0, %1 ]
  %34 = load i64, ptr %11, align 8, !tbaa !32
  %35 = and i64 %34, 8192
  %.not.i = icmp eq i64 %35, 0
  br i1 %.not.i, label %rb_array_len.exit, label %rb_array_len.exit.thread

rb_array_len.exit:                                ; preds = %.split
  %36 = load i64, ptr %12, align 8, !tbaa !30
  %37 = icmp slt i64 %.015, %36
  br i1 %37, label %41, label %.loopexit

rb_array_len.exit.thread:                         ; preds = %.split
  %38 = lshr i64 %34, 15
  %39 = and i64 %38, 127
  %40 = icmp samesign ult i64 %.015, %39
  br i1 %40, label %.thread34, label %.loopexit

.thread34:                                        ; preds = %rb_array_len.exit.thread
  call void @llvm.lifetime.start.p0(i64 8, ptr nonnull %2) #9
  br label %rb_array_const_ptr.exit

41:                                               ; preds = %rb_array_len.exit
  call void @llvm.lifetime.start.p0(i64 8, ptr nonnull %2) #9
  %42 = load ptr, ptr %13, align 8, !tbaa !30
  br label %rb_array_const_ptr.exit

rb_array_const_ptr.exit:                          ; preds = %.thread34, %41
  %.0.i18 = phi ptr [ %42, %41 ], [ %12, %.thread34 ]
  %43 = getelementptr inbounds nuw i64, ptr %.0.i18, i64 %.015
  %44 = load i64, ptr %43, align 8, !tbaa !17
  store i64 %44, ptr %2, align 8, !tbaa !17
  %45 = call i64 @ossl_to_der_if_possible(i64 noundef %44) #9
  store i64 %45, ptr %2, align 8, !tbaa !17
  %46 = call i64 @rb_string_value(ptr noundef nonnull %2) #9
  %47 = load i64, ptr %2, align 8, !tbaa !17
  %48 = call i64 @rb_str_append(i64 noundef %10, i64 noundef %47) #9
  call void @llvm.lifetime.end.p0(i64 8, ptr nonnull %2) #9
  %49 = add nuw nsw i64 %.015, 1
  br label %.split, !llvm.loop !73

.split27.us:                                      ; preds = %rb_array_const_ptr.exit.us
  %50 = load i64, ptr %11, align 8, !tbaa !32
  %51 = and i64 %50, 8192
  %.not.i19 = icmp eq i64 %51, 0
  br i1 %.not.i19, label %55, label %52

52:                                               ; preds = %.split27.us
  %53 = lshr i64 %50, 15
  %54 = and i64 %53, 127
  br label %rb_array_len.exit21

55:                                               ; preds = %.split27.us
  %56 = load i64, ptr %12, align 8, !tbaa !30
  br label %rb_array_len.exit21

rb_array_len.exit21:                              ; preds = %52, %55
  %.0.i20 = phi i64 [ %54, %52 ], [ %56, %55 ]
  %57 = add nsw i64 %.0.i20, -1
  %.not16 = icmp eq i64 %.015.us, %57
  br i1 %.not16, label %60, label %58

58:                                               ; preds = %rb_array_len.exit21
  %59 = load i64, ptr @eASN1Error, align 8, !tbaa !17
  call void (i64, ptr, ...) @ossl_raise(i64 noundef %59, ptr noundef nonnull @.str.123) #10
  unreachable

60:                                               ; preds = %rb_array_len.exit21
  call void @llvm.lifetime.end.p0(i64 8, ptr nonnull %2) #9
  br label %.loopexit

.loopexit:                                        ; preds = %rb_array_len.exit, %rb_array_len.exit.thread, %rb_array_len.exit.us, %rb_array_len.exit.us.thread, %60
  %61 = zext i1 %6 to i32
  %62 = call fastcc i64 @to_der_internal(i64 noundef %0, i32 noundef 1, i32 noundef %61, i64 noundef %10)
  ret i64 %62
}